(i__main__
LogFile
p0
(dp1
S'_installed_files'
p2
(dp3
S'../../../TriggerObjectMatching/x86_64-slc6-gcc49-opt/libTriggerObjectMatchingDict.so'
p4
S'../../InstallArea/x86_64-slc6-gcc49-opt/lib/libTriggerObjectMatchingDict.so'
p5
sS'../../../TriggerObjectMatching/x86_64-slc6-gcc49-opt/libTriggerObjectMatching.so.debug'
p6
S'../../InstallArea/x86_64-slc6-gcc49-opt/lib/libTriggerObjectMatching.so.debug'
p7
sS'../../../TriggerObjectMatching/x86_64-slc6-gcc49-opt/libTriggerObjectMatchingDict.so.debug'
p8
S'../../InstallArea/x86_64-slc6-gcc49-opt/lib/libTriggerObjectMatchingDict.so.debug'
p9
sS'../../TriggerObjectMatching/genConf/TriggerObjectMatching'
p10
(dp11
S'../../../TriggerObjectMatching/genConf/TriggerObjectMatching/TriggerObjectMatchingConf.py'
p12
S'../../InstallArea/python/TriggerObjectMatching/TriggerObjectMatchingConf.py'
p13
ssS'../../../../../../../../../cvmfs/atlas.cern.ch/repo/sw/software/AthAnalysisBase/x86_64-slc6-gcc49-opt/2.4.11/GAUDI/v26r2p1-lcg81e/GaudiPolicy/cmt/fragments/__init__.py'
p14
S'../../InstallArea/python/TriggerObjectMatching/__init__.py'
p15
sS'../../../TriggerObjectMatching/x86_64-slc6-gcc49-opt/libTriggerObjectMatching.so'
p16
S'../../InstallArea/x86_64-slc6-gcc49-opt/lib/libTriggerObjectMatching.so'
p17
ssb.